target datalayout = "e-m:e-p270:32:32-p271:32:32-p272:64:64-i64:64-i128:128-f80:128-n8:16:32:64-S128"
target triple = "x86_64-pc-linux-gnu"

%struct.timeout_params = type { i32, i8, i8, ptr, i64, i64, i32 }

@all_timeouts = internal global [23 x %struct.timeout_params] zeroinitializer, align 16

; Function Attrs: nounwind uwtable
define dso_local zeroext i1 @get_timeout_indicator(i32 noundef %0, i1 noundef zeroext %1) #0 {
  %3 = alloca i1, align 1
  %4 = alloca i32, align 4
  %5 = alloca i8, align 1
  store i32 %0, ptr %4, align 4
  %6 = zext i1 %1 to i8
  store i8 %6, ptr %5, align 1
  %7 = load i32, ptr %4, align 4
  %8 = zext i32 %7 to i64
  %9 = getelementptr inbounds nuw [23 x %struct.timeout_params], ptr @all_timeouts, i64 0, i64 %8
  %10 = getelementptr inbounds nuw %struct.timeout_params, ptr %9, i32 0, i32 2
  %11 = load volatile i8, ptr %10, align 1, !range !8, !noundef !9
  %12 = trunc i8 %11 to i1
  br i1 %12, label %13, label %22

13:                                               ; preds = %2
  %14 = load i8, ptr %5, align 1, !range !8, !noundef !9
  %15 = trunc i8 %14 to i1
  br i1 %15, label %16, label %21

16:                                               ; preds = %13
  %17 = load i32, ptr %4, align 4
  %18 = zext i32 %17 to i64
  %19 = getelementptr inbounds nuw [23 x %struct.timeout_params], ptr @all_timeouts, i64 0, i64 %18
  %20 = getelementptr inbounds nuw %struct.timeout_params, ptr %19, i32 0, i32 2
  store volatile i8 0, ptr %20, align 1
  br label %21

21:                                               ; preds = %16, %13
  store i1 true, ptr %3, align 1
  br label %23

22:                                               ; preds = %2
  store i1 false, ptr %3, align 1
  br label %23

23:                                               ; preds = %22, %21
  %24 = load i1, ptr %3, align 1
  ret i1 %24
}