; Function Attrs: nofree norecurse nounwind memory(readwrite, argmem: none) uwtable
define dso_local zeroext i1 @get_timeout_indicator(i32 noundef %0, i1 noundef zeroext %1) local_unnamed_addr #4 {
  %3 = zext i32 %0 to i64
  %4 = getelementptr inbounds nuw [23 x %struct.timeout_params], ptr @all_timeouts, i64 0, i64 %3, i32 2
  %5 = load volatile i8, ptr %4, align 1, !range !9, !noundef !10
  %6 = trunc nuw i8 %5 to i1
  %brmerge.demorgan = and i1 %1, %6
  br i1 %brmerge.demorgan, label %7, label %8

7:                                                ; preds = %2
  store volatile i8 0, ptr %4, align 1
  br label %8

8:                                                ; preds = %2, %7
  ret i1 %6
}